; Function Attrs: nofree norecurse nosync nounwind memory(argmem: read) uwtable
define internal i32 @pg_gb18030_verifystr(ptr noundef %0, i32 noundef %1) #5 {
  %3 = icmp sgt i32 %1, 0
  br i1 %3, label %.lr.ph, label %.thread

.lr.ph:                                           ; preds = %2, %27
  %.01426 = phi ptr [ %29, %27 ], [ %0, %2 ]
  %.01524 = phi i32 [ %30, %27 ], [ %1, %2 ]
  %4 = load i8, ptr %.01426, align 1
  %.not = icmp sgt i8 %4, -1
  br i1 %.not, label %5, label %7

5:                                                ; preds = %.lr.ph
  %6 = icmp eq i8 %4, 0
  br i1 %6, label %.thread, label %27

7:                                                ; preds = %.lr.ph
  %8 = icmp samesign ugt i32 %.01524, 3
  br i1 %8, label %9, label %22

9:                                                ; preds = %7
  %10 = getelementptr inbounds nuw i8, ptr %.01426, i64 1
  %11 = load i8, ptr %10, align 1
  %12 = add i8 %11, -48
  %or.cond.i = icmp ult i8 %12, 10
  br i1 %or.cond.i, label %13, label %.thread.i

13:                                               ; preds = %9
  switch i8 %4, label %14 [
    i8 -128, label %.thread
    i8 -1, label %.thread
  ]

14:                                               ; preds = %13
  %15 = getelementptr inbounds nuw i8, ptr %.01426, i64 2
  %16 = load i8, ptr %15, align 1
  %17 = add i8 %16, 1
  %or.cond29.i = icmp ult i8 %17, -126
  br i1 %or.cond29.i, label %.thread, label %18

18:                                               ; preds = %14
  %19 = getelementptr inbounds nuw i8, ptr %.01426, i64 3
  %20 = load i8, ptr %19, align 1
  %21 = add i8 %20, -48
  %or.cond30.i = icmp ult i8 %21, 10
  br i1 %or.cond30.i, label %27, label %.thread

22:                                               ; preds = %7
  %.not23 = icmp eq i32 %.01524, 1
  br i1 %.not23, label %.thread, label %.thread.i

.thread.i:                                        ; preds = %22, %9
  switch i8 %4, label %23 [
    i8 -1, label %.thread
    i8 -128, label %.thread
  ]

23:                                               ; preds = %.thread.i
  %24 = getelementptr inbounds nuw i8, ptr %.01426, i64 1
  %25 = load i8, ptr %24, align 1
  %26 = add i8 %25, -127
  %or.cond32.i = icmp ult i8 %26, -63
  %or.cond33.i = icmp sgt i8 %25, -2
  %or.cond = and i1 %or.cond33.i, %or.cond32.i
  br i1 %or.cond, label %.thread, label %27

27:                                               ; preds = %5, %18, %23
  %.013 = phi i32 [ 1, %5 ], [ 4, %18 ], [ 2, %23 ]
  %28 = zext nneg i32 %.013 to i64
  %29 = getelementptr inbounds nuw i8, ptr %.01426, i64 %28
  %30 = sub nsw i32 %.01524, %.013
  %31 = icmp sgt i32 %30, 0
  br i1 %31, label %.lr.ph, label %.thread

.thread:                                          ; preds = %27, %5, %.thread.i, %.thread.i, %22, %18, %14, %13, %13, %23, %2
  %.014.lcssa = phi ptr [ %0, %2 ], [ %.01426, %23 ], [ %.01426, %13 ], [ %.01426, %13 ], [ %.01426, %14 ], [ %.01426, %18 ], [ %.01426, %22 ], [ %.01426, %.thread.i ], [ %.01426, %.thread.i ], [ %.01426, %5 ], [ %29, %27 ]
  %32 = ptrtoint ptr %.014.lcssa to i64
  %33 = ptrtoint ptr %0 to i64
  %34 = sub i64 %32, %33
  %35 = trunc i64 %34 to i32
  ret i32 %35
}